target datalayout = "e-m:e-p270:32:32-p271:32:32-p272:64:64-i64:64-i128:128-f80:128-n8:16:32:64-S128"
target triple = "x86_64-pc-linux-gnu"

%struct.Gia_Man_t_ = type { ptr, ptr, i32, i32, i32, i32, ptr, ptr, i32, i32, i32, ptr, ptr, %struct.Vec_Int_t_, %struct.Vec_Int_t_, i32, i32, i32, %struct.Vec_Int_t_, ptr, ptr, ptr, i32, i32, i32, i32, ptr, ptr, ptr, ptr, ptr, i32, i32, ptr, i32, ptr, ptr, ptr, ptr, ptr, ptr, ptr, ptr, ptr, ptr, ptr, ptr, ptr, ptr, ptr, ptr, ptr, ptr, %struct.Vec_Int_t_, %struct.Vec_Int_t_, ptr, ptr, ptr, ptr, ptr, ptr, ptr, ptr, ptr, ptr, ptr, ptr, ptr, ptr, ptr, ptr, ptr, ptr, ptr, ptr, ptr, i32, float, float, ptr, ptr, i32, ptr, ptr, ptr, ptr, ptr, ptr, ptr, ptr, ptr, ptr, ptr, ptr, ptr, ptr, ptr, i64, i64, ptr, ptr, i32, i32, i32, i32, i32, i32, i32, i32, i32, i32, i32, i32, ptr, ptr, ptr, ptr, ptr, ptr, ptr, ptr, i32, i32, i32, ptr, i32, i32, ptr, ptr, ptr, ptr, ptr, ptr, i32, i32, ptr, %struct.Vec_Int_t_, %struct.Vec_Int_t_, %struct.Vec_Int_t_, ptr, ptr, ptr, i32, i32, i32, i32, ptr, ptr, ptr, ptr, ptr }
%struct.Vec_Int_t_ = type { i32, i32, ptr }

@.str = private unnamed_addr constant [32 x i8] c"Performing sequential cleanup.\0A\00", align 1
@.str.1 = private unnamed_addr constant [43 x i8] c"Merging combinationally equivalent flops.\0A\00", align 1

; Function Attrs: nounwind uwtable
define ptr @Gia_ManSeqCleanup(ptr noundef %0) #0 {
  %2 = alloca ptr, align 8
  store ptr %0, ptr %2, align 8, !tbaa !3
  %3 = load ptr, ptr %2, align 8, !tbaa !3
  %4 = call i32 @Gia_ManSeqMarkUsed(ptr noundef %3)
  %5 = load ptr, ptr %2, align 8, !tbaa !3
  %6 = call ptr @Gia_ManDupMarked(ptr noundef %5)
  ret ptr %6
}

; Function Attrs: nounwind uwtable
define ptr @Gia_ManCleanup(ptr noundef %0) #0 {
  %2 = alloca ptr, align 8
  store ptr %0, ptr %2, align 8, !tbaa !3
  %3 = load ptr, ptr %2, align 8, !tbaa !3
  %4 = call i32 @Gia_ManCombMarkUsed(ptr noundef %3)
  %5 = load ptr, ptr %2, align 8, !tbaa !3
  %6 = call ptr @Gia_ManDupMarked(ptr noundef %5)
  ret ptr %6
}

; Function Attrs: inlinehint nounwind uwtable
define internal i32 @Gia_ManRegNum(ptr noundef %0) #1 {
  %2 = alloca ptr, align 8
  store ptr %0, ptr %2, align 8, !tbaa !3
  %3 = load ptr, ptr %2, align 8, !tbaa !3
  %4 = getelementptr inbounds nuw %struct.Gia_Man_t_, ptr %3, i32 0, i32 2
  %5 = load i32, ptr %4, align 8, !tbaa !49
  ret i32 %5
}

; Function Attrs: nounwind uwtable
define ptr @Gia_ManSeqStructSweep(ptr noundef %0, i32 noundef %1, i32 noundef %2, i32 noundef %3) #0 {
  %5 = alloca ptr, align 8
  %6 = alloca ptr, align 8
  %7 = alloca i32, align 4
  %8 = alloca i32, align 4
  %9 = alloca i32, align 4
  %10 = alloca ptr, align 8
  %11 = alloca i32, align 4
  store ptr %0, ptr %6, align 8, !tbaa !3
  store i32 %1, ptr %7, align 4, !tbaa !32
  store i32 %2, ptr %8, align 4, !tbaa !32
  store i32 %3, ptr %9, align 4, !tbaa !32
  call void @llvm.lifetime.start.p0(i64 8, ptr %10) #8
  %12 = load ptr, ptr %6, align 8, !tbaa !3
  %13 = call i32 @Gia_ManRegNum(ptr noundef %12)
  %14 = icmp eq i32 %13, 0
  br i1 %14, label %15, label %18

15:                                               ; preds = %4
  %16 = load ptr, ptr %6, align 8, !tbaa !3
  %17 = call ptr @Gia_ManCleanup(ptr noundef %16)
  store ptr %17, ptr %5, align 8
  store i32 1, ptr %11, align 4
  br label %89

18:                                               ; preds = %4
  %19 = load i32, ptr %9, align 4, !tbaa !32
  %20 = icmp ne i32 %19, 0
  br i1 %20, label %21, label %23

21:                                               ; preds = %18
  %22 = call i32 (ptr, ...) @printf(ptr noundef @.str)
  br label %23

23:                                               ; preds = %21, %18
  %24 = load ptr, ptr %6, align 8, !tbaa !3
  store ptr %24, ptr %10, align 8, !tbaa !3
  %25 = call ptr @Gia_ManSeqCleanup(ptr noundef %24)
  store ptr %25, ptr %6, align 8, !tbaa !3
  %26 = load i32, ptr %9, align 4, !tbaa !32
  %27 = icmp ne i32 %26, 0
  br i1 %27, label %28, label %31

28:                                               ; preds = %23
  %29 = load ptr, ptr %10, align 8, !tbaa !3
  %30 = load ptr, ptr %6, align 8, !tbaa !3
  call void @Gia_ManReportImprovement(ptr noundef %29, ptr noundef %30)
  br label %31

31:                                               ; preds = %28, %23
  %32 = load i32, ptr %7, align 4, !tbaa !32
  %33 = icmp ne i32 %32, 0
  br i1 %33, label %34, label %49

34:                                               ; preds = %31
  %35 = load ptr, ptr %6, align 8, !tbaa !3
  %36 = call i32 @Gia_ManRegNum(ptr noundef %35)
  %37 = icmp ne i32 %36, 0
  br i1 %37, label %38, label %49

38:                                               ; preds = %34
  %39 = load ptr, ptr %6, align 8, !tbaa !3
  store ptr %39, ptr %10, align 8, !tbaa !3
  %40 = load i32, ptr %9, align 4, !tbaa !32
  %41 = call ptr @Gia_ManReduceConst(ptr noundef %39, i32 noundef %40)
  store ptr %41, ptr %6, align 8, !tbaa !3
  %42 = load i32, ptr %9, align 4, !tbaa !32
  %43 = icmp ne i32 %42, 0
  br i1 %43, label %44, label %47

44:                                               ; preds = %38
  %45 = load ptr, ptr %10, align 8, !tbaa !3
  %46 = load ptr, ptr %6, align 8, !tbaa !3
  call void @Gia_ManReportImprovement(ptr noundef %45, ptr noundef %46)
  br label %47

47:                                               ; preds = %44, %38
  %48 = load ptr, ptr %10, align 8, !tbaa !3
  call void @Gia_ManStop(ptr noundef %48)
  br label %49

49:                                               ; preds = %47, %34, %31
  %50 = load i32, ptr %9, align 4, !tbaa !32
  %51 = icmp ne i32 %50, 0
  br i1 %51, label %52, label %57

52:                                               ; preds = %49
  %53 = load i32, ptr %8, align 4, !tbaa !32
  %54 = icmp ne i32 %53, 0
  br i1 %54, label %55, label %57

55:                                               ; preds = %52
  %56 = call i32 (ptr, ...) @printf(ptr noundef @.str.1)
  br label %57

57:                                               ; preds = %55, %52, %49
  %58 = load i32, ptr %8, align 4, !tbaa !32
  %59 = icmp ne i32 %58, 0
  br i1 %59, label %60, label %87

60:                                               ; preds = %57
  br label %61

61:                                               ; preds = %84, %60
  br label %62

62:                                               ; preds = %61
  %63 = load ptr, ptr %6, align 8, !tbaa !3
  store ptr %63, ptr %10, align 8, !tbaa !3
  %64 = call ptr @Gia_ManSeqCleanup(ptr noundef %63)
  store ptr %64, ptr %6, align 8, !tbaa !3
  %65 = load i32, ptr %9, align 4, !tbaa !32
  %66 = icmp ne i32 %65, 0
  br i1 %66, label %67, label %70

67:                                               ; preds = %62
  %68 = load ptr, ptr %10, align 8, !tbaa !3
  %69 = load ptr, ptr %6, align 8, !tbaa !3
  call void @Gia_ManReportImprovement(ptr noundef %68, ptr noundef %69)
  br label %70

70:                                               ; preds = %67, %62
  %71 = load ptr, ptr %10, align 8, !tbaa !3
  call void @Gia_ManStop(ptr noundef %71)
  %72 = load ptr, ptr %6, align 8, !tbaa !3
  %73 = call i32 @Gia_ManRegNum(ptr noundef %72)
  %74 = icmp eq i32 %73, 0
  br i1 %74, label %75, label %76

75:                                               ; preds = %70
  br label %86

76:                                               ; preds = %70
  %77 = load ptr, ptr %6, align 8, !tbaa !3
  store ptr %77, ptr %10, align 8, !tbaa !3
  %78 = load i32, ptr %9, align 4, !tbaa !32
  %79 = call ptr @Gia_ManReduceEquiv(ptr noundef %77, i32 noundef %78)
  store ptr %79, ptr %6, align 8, !tbaa !3
  %80 = load ptr, ptr %6, align 8, !tbaa !3
  %81 = load ptr, ptr %10, align 8, !tbaa !3
  %82 = icmp eq ptr %80, %81
  br i1 %82, label %83, label %84

83:                                               ; preds = %76
  br label %86

84:                                               ; preds = %76
  %85 = load ptr, ptr %10, align 8, !tbaa !3
  call void @Gia_ManStop(ptr noundef %85)
  br label %61

86:                                               ; preds = %83, %75
  br label %87

87:                                               ; preds = %86, %57
  %88 = load ptr, ptr %6, align 8, !tbaa !3
  store ptr %88, ptr %5, align 8
  store i32 1, ptr %11, align 4
  br label %89

89:                                               ; preds = %87, %15
  call void @llvm.lifetime.end.p0(i64 8, ptr %10) #8
  %90 = load ptr, ptr %5, align 8
  ret ptr %90
}