; Function Attrs: nounwind uwtable
define ptr @Gia_ManSeqStructSweep(ptr noundef %0, i32 noundef %1, i32 noundef %2, i32 noundef %3) local_unnamed_addr #1 {
  %5 = getelementptr i8, ptr %0, i64 16
  %.val38 = load i32, ptr %5, align 8, !tbaa !42
  %6 = icmp eq i32 %.val38, 0
  br i1 %6, label %7, label %10

7:                                                ; preds = %4
  %8 = tail call i32 @Gia_ManCombMarkUsed(ptr noundef nonnull %0)
  %9 = tail call ptr @Gia_ManDupMarked(ptr noundef nonnull %0) #8
  br label %.loopexit

10:                                               ; preds = %4
  %11 = icmp ne i32 %3, 0
  br i1 %11, label %12, label %13

12:                                               ; preds = %10
  %puts = tail call i32 @puts(ptr nonnull dereferenceable(1) @str)
  br label %13

13:                                               ; preds = %12, %10
  %14 = tail call i32 @Gia_ManSeqMarkUsed(ptr noundef nonnull %0)
  %15 = tail call ptr @Gia_ManDupMarked(ptr noundef nonnull %0) #8
  br i1 %11, label %16, label %17

16:                                               ; preds = %13
  tail call void @Gia_ManReportImprovement(ptr noundef nonnull %0, ptr noundef %15) #8
  br label %17

17:                                               ; preds = %16, %13
  %.not = icmp eq i32 %1, 0
  br i1 %.not, label %24, label %18

18:                                               ; preds = %17
  %19 = getelementptr i8, ptr %15, i64 16
  %.val37 = load i32, ptr %19, align 8, !tbaa !42
  %.not35 = icmp eq i32 %.val37, 0
  br i1 %.not35, label %24, label %20

20:                                               ; preds = %18
  %21 = tail call ptr @Gia_ManReduceConst(ptr noundef nonnull %15, i32 noundef %3) #8
  br i1 %11, label %22, label %23

22:                                               ; preds = %20
  tail call void @Gia_ManReportImprovement(ptr noundef nonnull %15, ptr noundef %21) #8
  br label %23

23:                                               ; preds = %22, %20
  tail call void @Gia_ManStop(ptr noundef nonnull %15) #8
  br label %24

24:                                               ; preds = %23, %18, %17
  %.031 = phi ptr [ %21, %23 ], [ %15, %18 ], [ %15, %17 ]
  %25 = icmp ne i32 %2, 0
  %or.cond = and i1 %25, %11
  br i1 %or.cond, label %.preheader.thread, label %26

.preheader.thread:                                ; preds = %24
  %puts36 = tail call i32 @puts(ptr nonnull dereferenceable(1) @str.1)
  br label %.preheader.split.us

26:                                               ; preds = %24
  br i1 %25, label %.preheader, label %.loopexit

.preheader:                                       ; preds = %26
  br i1 %11, label %.preheader.split.us, label %.preheader.split

.preheader.split.us:                              ; preds = %.preheader.thread, %.preheader
  %27 = tail call i32 @Gia_ManSeqMarkUsed(ptr noundef %.031)
  %28 = tail call ptr @Gia_ManDupMarked(ptr noundef %.031) #8
  tail call void @Gia_ManReportImprovement(ptr noundef %.031, ptr noundef %28) #8
  tail call void @Gia_ManStop(ptr noundef %.031) #8
  %29 = getelementptr i8, ptr %28, i64 16
  %.val.us42 = load i32, ptr %29, align 8, !tbaa !42
  %30 = icmp eq i32 %.val.us42, 0
  br i1 %30, label %.loopexit, label %.lr.ph43

.lr.ph43:                                         ; preds = %.preheader.split.us, %34
  %31 = phi ptr [ %36, %34 ], [ %28, %.preheader.split.us ]
  %32 = tail call ptr @Gia_ManReduceEquiv(ptr noundef nonnull %31, i32 poison)
  %33 = icmp eq ptr %32, %31
  br i1 %33, label %.loopexit, label %34

34:                                               ; preds = %.lr.ph43
  tail call void @Gia_ManStop(ptr noundef nonnull %31) #8
  %35 = tail call i32 @Gia_ManSeqMarkUsed(ptr noundef %32)
  %36 = tail call ptr @Gia_ManDupMarked(ptr noundef %32) #8
  tail call void @Gia_ManReportImprovement(ptr noundef %32, ptr noundef %36) #8
  tail call void @Gia_ManStop(ptr noundef %32) #8
  %37 = getelementptr i8, ptr %36, i64 16
  %.val.us = load i32, ptr %37, align 8, !tbaa !42
  %38 = icmp eq i32 %.val.us, 0
  br i1 %38, label %.loopexit, label %.lr.ph43

.preheader.split:                                 ; preds = %.preheader
  %39 = tail call i32 @Gia_ManSeqMarkUsed(ptr noundef %.031)
  %40 = tail call ptr @Gia_ManDupMarked(ptr noundef %.031) #8
  tail call void @Gia_ManStop(ptr noundef %.031) #8
  %41 = getelementptr i8, ptr %40, i64 16
  %.val39 = load i32, ptr %41, align 8, !tbaa !42
  %42 = icmp eq i32 %.val39, 0
  br i1 %42, label %.loopexit, label %.lr.ph

.lr.ph:                                           ; preds = %.preheader.split, %46
  %43 = phi ptr [ %48, %46 ], [ %40, %.preheader.split ]
  %44 = tail call ptr @Gia_ManReduceEquiv(ptr noundef nonnull %43, i32 poison)
  %45 = icmp eq ptr %44, %43
  br i1 %45, label %.loopexit, label %46

46:                                               ; preds = %.lr.ph
  tail call void @Gia_ManStop(ptr noundef nonnull %43) #8
  %47 = tail call i32 @Gia_ManSeqMarkUsed(ptr noundef %44)
  %48 = tail call ptr @Gia_ManDupMarked(ptr noundef %44) #8
  tail call void @Gia_ManStop(ptr noundef %44) #8
  %49 = getelementptr i8, ptr %48, i64 16
  %.val = load i32, ptr %49, align 8, !tbaa !42
  %50 = icmp eq i32 %.val, 0
  br i1 %50, label %.loopexit, label %.lr.ph

.loopexit:                                        ; preds = %.lr.ph, %46, %34, %.lr.ph43, %.preheader.split.us, %.preheader.split, %26, %7
  %.0 = phi ptr [ %9, %7 ], [ %.031, %26 ], [ %28, %.preheader.split.us ], [ %40, %.preheader.split ], [ %32, %.lr.ph43 ], [ %36, %34 ], [ %48, %46 ], [ %44, %.lr.ph ]
  ret ptr %.0
}